; Function Attrs: null_pointer_is_valid sspstrong uwtable
define internal range(i32 0, 3) i32 @dissect_mp4ves_par_profile(ptr noundef %0, ptr readnone captures(none) %1, ptr readnone captures(none) %2, ptr noundef %3) #0 {
  %5 = icmp eq ptr %3, null
  br i1 %5, label %16, label %6

6:                                                ; preds = %4
  %7 = tail call ptr @get_asn1_ctx(ptr noundef nonnull %3)
  %.not = icmp eq ptr %7, null
  br i1 %.not, label %8, label %9

8:                                                ; preds = %6
  tail call void (ptr, ...) @proto_report_dissector_bug(ptr noundef nonnull @.str.167, ptr noundef nonnull @.str.168, i32 noundef 789, ptr noundef nonnull @.str.169) #4
  unreachable

9:                                                ; preds = %6
  %10 = tail call zeroext i16 @tvb_get_ntohs(ptr noundef %0, i32 noundef 0)
  %11 = zext i16 %10 to i32
  %12 = tail call ptr @try_val_to_str(i32 noundef %11, ptr noundef nonnull @mp4ves_level_indication_vals)
  %.not14 = icmp eq ptr %12, null
  br i1 %.not14, label %16, label %13

13:                                               ; preds = %9
  %14 = getelementptr inbounds nuw i8, ptr %7, i64 24
  %15 = load ptr, ptr %14, align 8
  tail call void (ptr, ptr, ...) @proto_item_append_text(ptr noundef %15, ptr noundef nonnull @.str.183, ptr noundef nonnull %12)
  br label %16

16:                                               ; preds = %9, %13, %4
  %.0 = phi i32 [ 0, %4 ], [ 2, %13 ], [ 2, %9 ]
  ret i32 %.0
}